target datalayout = "e-m:e-p270:32:32-p271:32:32-p272:64:64-i64:64-i128:128-f80:128-n8:16:32:64-S128"
target triple = "x86_64-pc-linux-gnu"

%struct.Scl_Item_t_ = type { i32, i32, %struct.Scl_Pair_t_, %struct.Scl_Pair_t_, %struct.Scl_Pair_t_, i32, i32 }
%struct.Scl_Pair_t_ = type { i32, i32 }
%struct.Scl_Tree_t_ = type { ptr, ptr, i64, i32, i32, i32, ptr, ptr, i64, ptr }

@.str.29 = private unnamed_addr constant [9 x i8] c"function\00", align 1
@.str.30 = private unnamed_addr constant [4 x i8] c"pin\00", align 1

; Function Attrs: nounwind uwtable
define ptr @Scl_LibertyReadPinFormula(ptr noundef %0, ptr noundef %1) #0 {
  %3 = alloca ptr, align 8
  %4 = alloca ptr, align 8
  %5 = alloca ptr, align 8
  %6 = alloca ptr, align 8
  store ptr %0, ptr %4, align 8
  store ptr %1, ptr %5, align 8
  %7 = load ptr, ptr %4, align 8
  %8 = load ptr, ptr %5, align 8
  %9 = getelementptr inbounds %struct.Scl_Item_t_, ptr %8, i32 0, i32 6
  %10 = load i32, ptr %9, align 4
  %11 = call ptr @Scl_LibertyItem(ptr noundef %7, i32 noundef %10)
  store ptr %11, ptr %6, align 8
  br label %12

12:                                               ; preds = %30, %2
  %13 = load ptr, ptr %6, align 8
  %14 = icmp ne ptr %13, null
  br i1 %14, label %15, label %36

15:                                               ; preds = %12
  %16 = load ptr, ptr %4, align 8
  %17 = load ptr, ptr %6, align 8
  %18 = getelementptr inbounds %struct.Scl_Item_t_, ptr %17, i32 0, i32 2
  %19 = load i64, ptr %18, align 4
  %20 = call i32 @Scl_LibertyCompare(ptr noundef %16, i64 %19, ptr noundef @.str.29)
  %21 = icmp ne i32 %20, 0
  br i1 %21, label %22, label %23

22:                                               ; preds = %15
  br label %29

23:                                               ; preds = %15
  %24 = load ptr, ptr %4, align 8
  %25 = load ptr, ptr %6, align 8
  %26 = getelementptr inbounds %struct.Scl_Item_t_, ptr %25, i32 0, i32 3
  %27 = load i64, ptr %26, align 4
  %28 = call ptr @Scl_LibertyReadString(ptr noundef %24, i64 %27)
  store ptr %28, ptr %3, align 8
  br label %37

29:                                               ; preds = %22
  br label %30

30:                                               ; preds = %29
  %31 = load ptr, ptr %4, align 8
  %32 = load ptr, ptr %6, align 8
  %33 = getelementptr inbounds %struct.Scl_Item_t_, ptr %32, i32 0, i32 5
  %34 = load i32, ptr %33, align 4
  %35 = call ptr @Scl_LibertyItem(ptr noundef %31, i32 noundef %34)
  store ptr %35, ptr %6, align 8
  br label %12, !llvm.loop !31

36:                                               ; preds = %12
  store ptr null, ptr %3, align 8
  br label %37

37:                                               ; preds = %36, %23
  %38 = load ptr, ptr %3, align 8
  ret ptr %38
}

; Function Attrs: nounwind uwtable
define internal i32 @Scl_LibertyCompare(ptr noundef %0, i64 %1, ptr noundef %2) #0 {
  %4 = alloca %struct.Scl_Pair_t_, align 4
  %5 = alloca ptr, align 8
  %6 = alloca ptr, align 8
  store i64 %1, ptr %4, align 4
  store ptr %0, ptr %5, align 8
  store ptr %2, ptr %6, align 8
  %7 = load ptr, ptr %5, align 8
  %8 = getelementptr inbounds %struct.Scl_Tree_t_, ptr %7, i32 0, i32 1
  %9 = load ptr, ptr %8, align 8
  %10 = getelementptr inbounds %struct.Scl_Pair_t_, ptr %4, i32 0, i32 0
  %11 = load i32, ptr %10, align 4
  %12 = sext i32 %11 to i64
  %13 = getelementptr inbounds i8, ptr %9, i64 %12
  %14 = load ptr, ptr %6, align 8
  %15 = getelementptr inbounds %struct.Scl_Pair_t_, ptr %4, i32 0, i32 1
  %16 = load i32, ptr %15, align 4
  %17 = getelementptr inbounds %struct.Scl_Pair_t_, ptr %4, i32 0, i32 0
  %18 = load i32, ptr %17, align 4
  %19 = sub nsw i32 %16, %18
  %20 = sext i32 %19 to i64
  %21 = call i32 @strncmp(ptr noundef %13, ptr noundef %14, i64 noundef %20) #11
  %22 = icmp ne i32 %21, 0
  br i1 %22, label %33, label %23

23:                                               ; preds = %3
  %24 = load ptr, ptr %6, align 8
  %25 = call i64 @strlen(ptr noundef %24) #11
  %26 = trunc i64 %25 to i32
  %27 = getelementptr inbounds %struct.Scl_Pair_t_, ptr %4, i32 0, i32 1
  %28 = load i32, ptr %27, align 4
  %29 = getelementptr inbounds %struct.Scl_Pair_t_, ptr %4, i32 0, i32 0
  %30 = load i32, ptr %29, align 4
  %31 = sub nsw i32 %28, %30
  %32 = icmp ne i32 %26, %31
  br label %33

33:                                               ; preds = %23, %3
  %34 = phi i1 [ true, %3 ], [ %32, %23 ]
  %35 = zext i1 %34 to i32
  ret i32 %35
}

; Function Attrs: nounwind uwtable
define internal ptr @Scl_LibertyItem(ptr noundef %0, i32 noundef %1) #0 {
  %3 = alloca ptr, align 8
  %4 = alloca i32, align 4
  store ptr %0, ptr %3, align 8
  store i32 %1, ptr %4, align 4
  %5 = load i32, ptr %4, align 4
  %6 = icmp slt i32 %5, 0
  br i1 %6, label %7, label %8

7:                                                ; preds = %2
  br label %15

8:                                                ; preds = %2
  %9 = load ptr, ptr %3, align 8
  %10 = getelementptr inbounds %struct.Scl_Tree_t_, ptr %9, i32 0, i32 6
  %11 = load ptr, ptr %10, align 8
  %12 = load i32, ptr %4, align 4
  %13 = sext i32 %12 to i64
  %14 = getelementptr inbounds %struct.Scl_Item_t_, ptr %11, i64 %13
  br label %15

15:                                               ; preds = %8, %7
  %16 = phi ptr [ null, %7 ], [ %14, %8 ]
  ret ptr %16
}

; Function Attrs: nounwind uwtable
define i32 @Scl_LibertyReadCellOutputNum(ptr noundef %0, ptr noundef %1) #0 {
  %3 = alloca ptr, align 8
  %4 = alloca ptr, align 8
  %5 = alloca ptr, align 8
  %6 = alloca i32, align 4
  store ptr %0, ptr %3, align 8
  store ptr %1, ptr %4, align 8
  store i32 0, ptr %6, align 4
  %7 = load ptr, ptr %3, align 8
  %8 = load ptr, ptr %4, align 8
  %9 = getelementptr inbounds %struct.Scl_Item_t_, ptr %8, i32 0, i32 6
  %10 = load i32, ptr %9, align 4
  %11 = call ptr @Scl_LibertyItem(ptr noundef %7, i32 noundef %10)
  store ptr %11, ptr %5, align 8
  br label %12

12:                                               ; preds = %33, %2
  %13 = load ptr, ptr %5, align 8
  %14 = icmp ne ptr %13, null
  br i1 %14, label %15, label %39

15:                                               ; preds = %12
  %16 = load ptr, ptr %3, align 8
  %17 = load ptr, ptr %5, align 8
  %18 = getelementptr inbounds %struct.Scl_Item_t_, ptr %17, i32 0, i32 2
  %19 = load i64, ptr %18, align 4
  %20 = call i32 @Scl_LibertyCompare(ptr noundef %16, i64 %19, ptr noundef @.str.30)
  %21 = icmp ne i32 %20, 0
  br i1 %21, label %22, label %23

22:                                               ; preds = %15
  br label %32

23:                                               ; preds = %15
  %24 = load ptr, ptr %3, align 8
  %25 = load ptr, ptr %5, align 8
  %26 = call ptr @Scl_LibertyReadPinFormula(ptr noundef %24, ptr noundef %25)
  %27 = icmp ne ptr %26, null
  br i1 %27, label %28, label %31

28:                                               ; preds = %23
  %29 = load i32, ptr %6, align 4
  %30 = add nsw i32 %29, 1
  store i32 %30, ptr %6, align 4
  br label %31

31:                                               ; preds = %28, %23
  br label %32

32:                                               ; preds = %31, %22
  br label %33

33:                                               ; preds = %32
  %34 = load ptr, ptr %3, align 8
  %35 = load ptr, ptr %5, align 8
  %36 = getelementptr inbounds %struct.Scl_Item_t_, ptr %35, i32 0, i32 5
  %37 = load i32, ptr %36, align 4
  %38 = call ptr @Scl_LibertyItem(ptr noundef %34, i32 noundef %37)
  store ptr %38, ptr %5, align 8
  br label %12, !llvm.loop !34

39:                                               ; preds = %12
  %40 = load i32, ptr %6, align 4
  ret i32 %40
}