; Function Attrs: nounwind uwtable
define i32 @Scl_LibertyReadCellOutputNum(ptr noundef readonly captures(none) %0, ptr noundef readonly captures(none) %1) local_unnamed_addr #4 {
  %3 = getelementptr inbounds nuw i8, ptr %1, i64 36
  %4 = load i32, ptr %3, align 4
  %5 = icmp slt i32 %4, 0
  br i1 %5, label %._crit_edge, label %Scl_LibertyItem.exit

Scl_LibertyItem.exit:                             ; preds = %2
  %6 = getelementptr inbounds nuw i8, ptr %0, i64 40
  %7 = load ptr, ptr %6, align 8
  %.not18 = icmp eq ptr %7, null
  br i1 %.not18, label %._crit_edge, label %.lr.ph

.lr.ph:                                           ; preds = %Scl_LibertyItem.exit
  %8 = zext nneg i32 %4 to i64
  %9 = getelementptr inbounds nuw %struct.Scl_Item_t_, ptr %7, i64 %8
  %10 = getelementptr i8, ptr %0, i64 8
  %11 = getelementptr inbounds nuw i8, ptr %0, i64 40
  br label %12

12:                                               ; preds = %.lr.ph, %Scl_LibertyItem.exit14
  %.020 = phi i32 [ 0, %.lr.ph ], [ %.1, %Scl_LibertyItem.exit14 ]
  %.01019 = phi ptr [ %9, %.lr.ph ], [ %46, %Scl_LibertyItem.exit14 ]
  %13 = getelementptr inbounds nuw i8, ptr %.01019, i64 8
  %14 = load i64, ptr %13, align 4
  %.val = load ptr, ptr %10, align 8
  %.sroa.0.0.extract.trunc.i = trunc i64 %14 to i32
  %.sroa.4.0.extract.shift.i = lshr i64 %14, 32
  %.sroa.4.0.extract.trunc.i = trunc nuw i64 %.sroa.4.0.extract.shift.i to i32
  %sext.i = shl i64 %14, 32
  %15 = ashr exact i64 %sext.i, 32
  %16 = getelementptr inbounds i8, ptr %.val, i64 %15
  %17 = sub nsw i32 %.sroa.4.0.extract.trunc.i, %.sroa.0.0.extract.trunc.i
  %18 = sext i32 %17 to i64
  %19 = tail call i32 @strncmp(ptr noundef readonly %16, ptr noundef nonnull @.str.30, i64 noundef %18) #30
  %.not.i = icmp eq i32 %19, 0
  %.not16 = icmp eq i32 %17, 3
  %or.cond = and i1 %.not.i, %.not16
  br i1 %or.cond, label %20, label %Scl_LibertyCompare.exit.thread

20:                                               ; preds = %12
  %21 = getelementptr inbounds nuw i8, ptr %.01019, i64 36
  %22 = load i32, ptr %21, align 4
  %23 = icmp slt i32 %22, 0
  br i1 %23, label %Scl_LibertyReadPinFormula.exit, label %Scl_LibertyItem.exit.i

Scl_LibertyItem.exit.i:                           ; preds = %20
  %24 = load ptr, ptr %11, align 8
  %.not16.i = icmp eq ptr %24, null
  br i1 %.not16.i, label %Scl_LibertyReadPinFormula.exit, label %.lr.ph.i

.lr.ph.i:                                         ; preds = %Scl_LibertyItem.exit.i, %Scl_LibertyCompare.exit.thread.i
  %.pn.in = phi i32 [ %39, %Scl_LibertyCompare.exit.thread.i ], [ %22, %Scl_LibertyItem.exit.i ]
  %.pn = zext nneg i32 %.pn.in to i64
  %.017.i = getelementptr inbounds nuw %struct.Scl_Item_t_, ptr %24, i64 %.pn
  %25 = getelementptr inbounds nuw i8, ptr %.017.i, i64 8
  %26 = load i64, ptr %25, align 4
  %.sroa.0.0.extract.trunc.i.i = trunc i64 %26 to i32
  %.sroa.4.0.extract.shift.i.i = lshr i64 %26, 32
  %.sroa.4.0.extract.trunc.i.i = trunc nuw i64 %.sroa.4.0.extract.shift.i.i to i32
  %sext.i.i = shl i64 %26, 32
  %27 = ashr exact i64 %sext.i.i, 32
  %28 = getelementptr inbounds i8, ptr %.val, i64 %27
  %29 = sub nsw i32 %.sroa.4.0.extract.trunc.i.i, %.sroa.0.0.extract.trunc.i.i
  %30 = sext i32 %29 to i64
  %31 = tail call i32 @strncmp(ptr noundef readonly %28, ptr noundef nonnull @.str.29, i64 noundef %30) #30
  %.not.i.i = icmp eq i32 %31, 0
  %.not14.i = icmp eq i32 %29, 8
  %or.cond.i = and i1 %.not.i.i, %.not14.i
  br i1 %or.cond.i, label %32, label %Scl_LibertyCompare.exit.thread.i

32:                                               ; preds = %.lr.ph.i
  %33 = getelementptr inbounds nuw i8, ptr %.017.i, i64 16
  %34 = load i64, ptr %33, align 4
  %35 = tail call ptr @Scl_LibertyReadString(ptr noundef nonnull readonly %0, i64 %34)
  %36 = icmp ne ptr %35, null
  %37 = zext i1 %36 to i32
  br label %Scl_LibertyReadPinFormula.exit

Scl_LibertyCompare.exit.thread.i:                 ; preds = %.lr.ph.i
  %38 = getelementptr inbounds nuw i8, ptr %.017.i, i64 32
  %39 = load i32, ptr %38, align 4
  %40 = icmp slt i32 %39, 0
  br i1 %40, label %Scl_LibertyReadPinFormula.exit, label %.lr.ph.i, !llvm.loop !30

Scl_LibertyReadPinFormula.exit:                   ; preds = %Scl_LibertyCompare.exit.thread.i, %20, %Scl_LibertyItem.exit.i, %32
  %.010.i = phi i32 [ %37, %32 ], [ 0, %Scl_LibertyItem.exit.i ], [ 0, %20 ], [ 0, %Scl_LibertyCompare.exit.thread.i ]
  %spec.select = add nsw i32 %.010.i, %.020
  br label %Scl_LibertyCompare.exit.thread

Scl_LibertyCompare.exit.thread:                   ; preds = %12, %Scl_LibertyReadPinFormula.exit
  %.1 = phi i32 [ %spec.select, %Scl_LibertyReadPinFormula.exit ], [ %.020, %12 ]
  %41 = getelementptr inbounds nuw i8, ptr %.01019, i64 32
  %42 = load i32, ptr %41, align 4
  %43 = icmp slt i32 %42, 0
  br i1 %43, label %._crit_edge, label %Scl_LibertyItem.exit14

Scl_LibertyItem.exit14:                           ; preds = %Scl_LibertyCompare.exit.thread
  %44 = load ptr, ptr %11, align 8
  %45 = zext nneg i32 %42 to i64
  %46 = getelementptr inbounds nuw %struct.Scl_Item_t_, ptr %44, i64 %45
  %.not = icmp eq ptr %44, null
  br i1 %.not, label %._crit_edge, label %12, !llvm.loop !33

._crit_edge:                                      ; preds = %Scl_LibertyCompare.exit.thread, %Scl_LibertyItem.exit14, %2, %Scl_LibertyItem.exit
  %.0.lcssa = phi i32 [ 0, %Scl_LibertyItem.exit ], [ 0, %2 ], [ %.1, %Scl_LibertyItem.exit14 ], [ %.1, %Scl_LibertyCompare.exit.thread ]
  ret i32 %.0.lcssa
}